; Function Attrs: mustprogress uwtable
define void @rocksdb_singledelete_with_ts(ptr noundef readonly captures(none) %0, ptr noundef %1, ptr noundef %2, i64 noundef %3, ptr noundef %4, i64 noundef %5, ptr noundef captures(none) %6) local_unnamed_addr #0 personality ptr @__gxx_personality_v0 {
  %8 = alloca %"class.rocksdb::Status", align 8
  %9 = alloca %"class.rocksdb::Slice", align 8
  %10 = alloca %"class.rocksdb::Slice", align 8
  call void @llvm.lifetime.start.p0(i64 16, ptr nonnull %8) #43
  %11 = load ptr, ptr %0, align 8, !tbaa !26
  call void @llvm.lifetime.start.p0(i64 16, ptr nonnull %9) #43
  store ptr %2, ptr %9, align 8, !tbaa !251
  %12 = getelementptr inbounds nuw i8, ptr %9, i64 8
  store i64 %3, ptr %12, align 8, !tbaa !253
  call void @llvm.lifetime.start.p0(i64 16, ptr nonnull %10) #43
  store ptr %4, ptr %10, align 8, !tbaa !251
  %13 = getelementptr inbounds nuw i8, ptr %10, i64 8
  store i64 %5, ptr %13, align 8, !tbaa !253
  %14 = load ptr, ptr %11, align 8, !tbaa !23
  %15 = getelementptr inbounds nuw i8, ptr %14, i64 184
  %16 = load ptr, ptr %15, align 8
  call void %16(ptr dead_on_unwind nonnull writable sret(%"class.rocksdb::Status") align 8 %8, ptr noundef nonnull align 8 dereferenceable(8) %11, ptr noundef nonnull align 8 dereferenceable(25) %1, ptr noundef nonnull align 8 dereferenceable(16) %9, ptr noundef nonnull align 8 dereferenceable(16) %10)
  %17 = invoke fastcc noundef zeroext i1 @_ZL9SaveErrorPPcRKN7rocksdb6StatusE(ptr noundef %6, ptr noundef nonnull align 8 dereferenceable(16) %8)
          to label %18 unwind label %21

18:                                               ; preds = %7
  %19 = getelementptr inbounds nuw i8, ptr %8, i64 8
  %20 = load ptr, ptr %19, align 8, !tbaa !25
  %.not.i.i = icmp eq ptr %20, null
  br i1 %.not.i.i, label %_ZN7rocksdb6StatusD2Ev.exit, label %_ZNKSt14default_deleteIA_KcEclIS0_EENSt9enable_ifIXsr14is_convertibleIPA_T_PS1_EE5valueEvE4typeEPS5_.exit.i.i

_ZNKSt14default_deleteIA_KcEclIS0_EENSt9enable_ifIXsr14is_convertibleIPA_T_PS1_EE5valueEvE4typeEPS5_.exit.i.i: ; preds = %18
  call void @_ZdaPv(ptr noundef nonnull %20) #45
  br label %_ZN7rocksdb6StatusD2Ev.exit

_ZN7rocksdb6StatusD2Ev.exit:                      ; preds = %18, %_ZNKSt14default_deleteIA_KcEclIS0_EENSt9enable_ifIXsr14is_convertibleIPA_T_PS1_EE5valueEvE4typeEPS5_.exit.i.i
  call void @llvm.lifetime.end.p0(i64 16, ptr nonnull %10) #43
  call void @llvm.lifetime.end.p0(i64 16, ptr nonnull %9) #43
  call void @llvm.lifetime.end.p0(i64 16, ptr nonnull %8) #43
  ret void

21:                                               ; preds = %7
  %22 = landingpad { ptr, i32 }
          cleanup
  %23 = getelementptr inbounds nuw i8, ptr %8, i64 8
  %24 = load ptr, ptr %23, align 8, !tbaa !25
  %.not.i.i8 = icmp eq ptr %24, null
  br i1 %.not.i.i8, label %_ZN7rocksdb6StatusD2Ev.exit10, label %_ZNKSt14default_deleteIA_KcEclIS0_EENSt9enable_ifIXsr14is_convertibleIPA_T_PS1_EE5valueEvE4typeEPS5_.exit.i.i9

_ZNKSt14default_deleteIA_KcEclIS0_EENSt9enable_ifIXsr14is_convertibleIPA_T_PS1_EE5valueEvE4typeEPS5_.exit.i.i9: ; preds = %21
  call void @_ZdaPv(ptr noundef nonnull %24) #45
  br label %_ZN7rocksdb6StatusD2Ev.exit10

_ZN7rocksdb6StatusD2Ev.exit10:                    ; preds = %21, %_ZNKSt14default_deleteIA_KcEclIS0_EENSt9enable_ifIXsr14is_convertibleIPA_T_PS1_EE5valueEvE4typeEPS5_.exit.i.i9
  call void @llvm.lifetime.end.p0(i64 16, ptr nonnull %10) #43
  call void @llvm.lifetime.end.p0(i64 16, ptr nonnull %9) #43
  call void @llvm.lifetime.end.p0(i64 16, ptr nonnull %8) #43
  resume { ptr, i32 } %22
}